; Function Attrs: mustprogress uwtable
define hidden noundef ptr @_ZN6google8protobuf8internal12ExtensionSet14ReleaseMessageEPKNS0_15FieldDescriptorEPNS0_14MessageFactoryE(ptr noundef nonnull align 8 dereferenceable(24) %0, ptr noundef %1, ptr noundef %2) local_unnamed_addr #3 align 2 personality ptr @__gxx_personality_v0 {
  %4 = getelementptr inbounds nuw i8, ptr %1, i64 4
  %5 = load i32, ptr %4, align 4, !tbaa !55
  %6 = tail call noundef ptr @_ZN6google8protobuf8internal12ExtensionSet10FindOrNullEi(ptr noundef nonnull align 8 dereferenceable(24) %0, i32 noundef %5)
  %7 = icmp eq ptr %6, null
  br i1 %7, label %47, label %8

8:                                                ; preds = %3
  %9 = getelementptr inbounds nuw i8, ptr %6, i64 10
  %10 = load i8, ptr %9, align 2
  %11 = and i8 %10, 16
  %.not = icmp eq i8 %11, 0
  br i1 %.not, label %33, label %12

12:                                               ; preds = %8
  %13 = load ptr, ptr %6, align 8, !tbaa !16
  %14 = tail call noundef ptr @_ZNK6google8protobuf15FieldDescriptor12message_typeEv(ptr noundef nonnull align 8 dereferenceable(72) %1)
  %15 = load ptr, ptr %2, align 8, !tbaa !52
  %16 = getelementptr inbounds nuw i8, ptr %15, i64 16
  %17 = load ptr, ptr %16, align 8
  %18 = tail call noundef ptr %17(ptr noundef nonnull align 8 dereferenceable(8) %2, ptr noundef %14)
  %19 = load ptr, ptr %0, align 8, !tbaa !54
  %20 = load ptr, ptr %13, align 8, !tbaa !52
  %21 = getelementptr inbounds nuw i8, ptr %20, i64 56
  %22 = load ptr, ptr %21, align 8
  %23 = tail call noundef ptr %22(ptr noundef nonnull align 8 dereferenceable(8) %13, ptr noundef nonnull align 8 dereferenceable(16) %18, ptr noundef %19)
  %24 = load ptr, ptr %0, align 8, !tbaa !54
  %25 = icmp eq ptr %24, null
  br i1 %25, label %26, label %45

26:                                               ; preds = %12
  %27 = load ptr, ptr %6, align 8, !tbaa !16
  %28 = icmp eq ptr %27, null
  br i1 %28, label %45, label %29

29:                                               ; preds = %26
  %30 = load ptr, ptr %27, align 8, !tbaa !52
  %31 = getelementptr inbounds nuw i8, ptr %30, i64 8
  %32 = load ptr, ptr %31, align 8
  tail call void %32(ptr noundef nonnull align 8 dereferenceable(8) %27) #21
  br label %45

33:                                               ; preds = %8
  %34 = load ptr, ptr %0, align 8, !tbaa !54
  %.not18 = icmp eq ptr %34, null
  %35 = load ptr, ptr %6, align 8, !tbaa !16
  br i1 %.not18, label %45, label %36

36:                                               ; preds = %33
  %37 = load ptr, ptr %35, align 8, !tbaa !52
  %38 = getelementptr inbounds nuw i8, ptr %37, i64 24
  %39 = load ptr, ptr %38, align 8
  %40 = tail call noundef ptr %39(ptr noundef nonnull align 8 dereferenceable(16) %35, ptr noundef null)
  %41 = load ptr, ptr %6, align 8, !tbaa !16
  %42 = load ptr, ptr %40, align 8, !tbaa !52
  %43 = getelementptr inbounds nuw i8, ptr %42, i64 56
  %44 = load ptr, ptr %43, align 8
  tail call void %44(ptr noundef nonnull align 8 dereferenceable(16) %40, ptr noundef nonnull align 8 dereferenceable(16) %41)
  br label %45

45:                                               ; preds = %33, %36, %12, %29, %26
  %.0 = phi ptr [ %23, %26 ], [ %23, %29 ], [ %23, %12 ], [ %40, %36 ], [ %35, %33 ]
  %46 = load i32, ptr %4, align 4, !tbaa !55
  tail call void @_ZN6google8protobuf8internal12ExtensionSet5EraseEi(ptr noundef nonnull align 8 dereferenceable(24) %0, i32 noundef %46)
  br label %47

47:                                               ; preds = %3, %45
  %.015 = phi ptr [ %.0, %45 ], [ null, %3 ]
  ret ptr %.015
}